target datalayout = "e-m:e-p270:32:32-p271:32:32-p272:64:64-i64:64-i128:128-f80:128-n8:16:32:64-S128"
target triple = "x86_64-pc-linux-gnu"

%class.aig_lit = type { ptr }
%class.aig_ref = type { ptr, ptr }
%class.aig_manager = type { ptr }

@_ZN7aig_refC1ER11aig_managerRK7aig_lit = hidden unnamed_addr alias void (ptr, ptr, ptr), ptr @_ZN7aig_refC2ER11aig_managerRK7aig_lit

; Function Attrs: mustprogress uwtable
define hidden void @_ZN11aig_manager6mk_aigERK4goal(ptr dead_on_unwind noalias writable sret(%class.aig_ref) align 8 %0, ptr noundef nonnull align 8 dereferenceable(8) %1, ptr noundef nonnull align 8 dereferenceable(124) %2) #5 align 2 {
  %4 = alloca ptr, align 8
  %5 = alloca ptr, align 8
  %6 = alloca ptr, align 8
  %7 = alloca %class.aig_lit, align 8
  store ptr %0, ptr %4, align 8
  store ptr %1, ptr %5, align 8, !tbaa !18
  store ptr %2, ptr %6, align 8, !tbaa !57
  %8 = load ptr, ptr %5, align 8
  call void @llvm.lifetime.start.p0(i64 8, ptr %7) #3
  %9 = getelementptr inbounds nuw %class.aig_manager, ptr %8, i32 0, i32 0
  %10 = load ptr, ptr %9, align 8, !tbaa !19
  %11 = load ptr, ptr %6, align 8, !tbaa !57
  %12 = call ptr @_ZN11aig_manager3imp6mk_aigI4goalEE7aig_litRKT_(ptr noundef nonnull align 8 dereferenceable(680) %10, ptr noundef nonnull align 8 dereferenceable(124) %11)
  %13 = getelementptr inbounds nuw %class.aig_lit, ptr %7, i32 0, i32 0
  store ptr %12, ptr %13, align 8
  call void @_ZN7aig_refC1ER11aig_managerRK7aig_lit(ptr noundef nonnull align 8 dereferenceable(16) %0, ptr noundef nonnull align 8 dereferenceable(8) %8, ptr noundef nonnull align 8 dereferenceable(8) %7)
  call void @llvm.lifetime.end.p0(i64 8, ptr %7) #3
  ret void
}