; Function Attrs: mustprogress uwtable
define hidden void @_ZN11aig_manager6mk_aigERK4goal(ptr dead_on_unwind noalias writable writeonly sret(%class.aig_ref) align 8 captures(none) initializes((0, 16)) %0, ptr noundef nonnull align 8 dereferenceable(8) %1, ptr noundef nonnull align 8 dereferenceable(124) %2) local_unnamed_addr #6 align 2 {
  %4 = load ptr, ptr %1, align 8, !tbaa !16
  %5 = tail call ptr @_ZN11aig_manager3imp6mk_aigI4goalEE7aig_litRKT_(ptr noundef nonnull align 8 dereferenceable(680) %4, ptr noundef nonnull align 8 dereferenceable(124) %2)
  store ptr %1, ptr %0, align 8, !tbaa !3
  %6 = getelementptr inbounds nuw i8, ptr %0, i64 8
  store ptr %5, ptr %6, align 8, !tbaa !12
  %7 = ptrtoint ptr %5 to i64
  %8 = and i64 %7, -2
  %9 = inttoptr i64 %8 to ptr
  %10 = getelementptr inbounds nuw i8, ptr %9, i64 4
  %11 = load i32, ptr %10, align 4, !tbaa !13
  %12 = add i32 %11, 1
  store i32 %12, ptr %10, align 4, !tbaa !13
  ret void
}